target datalayout = "e-m:e-p270:32:32-p271:32:32-p272:64:64-i64:64-i128:128-f80:128-n8:16:32:64-S128"
target triple = "x86_64-pc-linux-gnu"

%"class.(anonymous namespace)::CXXNameMangler" = type { ptr, ptr, i8, i8, i8, ptr, i32, i32, i32, %"class.(anonymous namespace)::CXXNameMangler::FunctionTypeDepthState", ptr, %"class.(anonymous namespace)::CXXNameMangler::AbiTagState", %"class.llvm::DenseMap.513", %"class.llvm::DenseMap.516" }
%"class.(anonymous namespace)::CXXNameMangler::FunctionTypeDepthState" = type { i32 }
%"class.(anonymous namespace)::CXXNameMangler::AbiTagState" = type { %"class.llvm::SmallVector.508", %"class.llvm::SmallVector.508", ptr, ptr }
%"class.llvm::SmallVector.508" = type { %"class.llvm::SmallVectorImpl.509", %"struct.llvm::SmallVectorStorage.512" }
%"class.llvm::SmallVectorImpl.509" = type { %"class.llvm::SmallVectorTemplateBase.510" }
%"class.llvm::SmallVectorTemplateBase.510" = type { %"class.llvm::SmallVectorTemplateCommon.511" }
%"class.llvm::SmallVectorTemplateCommon.511" = type { %"class.llvm::SmallVectorBase" }
%"class.llvm::SmallVectorBase" = type { ptr, i32, i32 }
%"struct.llvm::SmallVectorStorage.512" = type { [64 x i8] }
%"class.llvm::DenseMap.513" = type <{ ptr, i32, i32, i32, [4 x i8] }>
%"class.llvm::DenseMap.516" = type <{ ptr, i32, i32, i32, [4 x i8] }>
%"class.llvm::raw_ostream" = type { ptr, i32, ptr, ptr, ptr, i8, i32 }
%class.anon.796 = type { ptr, ptr, ptr }

; Function Attrs: mustprogress nounwind uwtable
define linkonce_odr hidden noundef nonnull align 8 dereferenceable(48) ptr @_ZN4llvm11raw_ostreamlsEc(ptr noundef nonnull align 8 dereferenceable(48) %0, i8 noundef signext %1) #0 comdat align 2 {
  %3 = alloca ptr, align 8
  %4 = alloca ptr, align 8
  %5 = alloca i8, align 1
  store ptr %0, ptr %4, align 8
  store i8 %1, ptr %5, align 1
  %6 = load ptr, ptr %4, align 8
  %7 = getelementptr inbounds nuw %"class.llvm::raw_ostream", ptr %6, i32 0, i32 4
  %8 = load ptr, ptr %7, align 8
  %9 = getelementptr inbounds nuw %"class.llvm::raw_ostream", ptr %6, i32 0, i32 3
  %10 = load ptr, ptr %9, align 8
  %11 = icmp uge ptr %8, %10
  br i1 %11, label %12, label %15

12:                                               ; preds = %2
  %13 = load i8, ptr %5, align 1
  %14 = call noundef nonnull align 8 dereferenceable(48) ptr @_ZN4llvm11raw_ostream5writeEh(ptr noundef nonnull align 8 dereferenceable(48) %6, i8 noundef zeroext %13)
  store ptr %14, ptr %3, align 8
  br label %20

15:                                               ; preds = %2
  %16 = load i8, ptr %5, align 1
  %17 = getelementptr inbounds nuw %"class.llvm::raw_ostream", ptr %6, i32 0, i32 4
  %18 = load ptr, ptr %17, align 8
  %19 = getelementptr inbounds i8, ptr %18, i32 1
  store ptr %19, ptr %17, align 8
  store i8 %16, ptr %18, align 1
  store ptr %6, ptr %3, align 8
  br label %20

20:                                               ; preds = %15, %12
  %21 = load ptr, ptr %3, align 8
  ret ptr %21
}

; Function Attrs: mustprogress nounwind uwtable
define internal void @"_ZZN12_GLOBAL__N_114CXXNameMangler24mangleValueInTemplateArgEN5clang8QualTypeERKNS1_7APValueEbbENK3$_0clEv"(ptr noundef nonnull align 8 dereferenceable(24) %0) #0 align 2 {
  %2 = alloca ptr, align 8
  store ptr %0, ptr %2, align 8
  %3 = load ptr, ptr %2, align 8
  %4 = getelementptr inbounds nuw %class.anon.796, ptr %3, i32 0, i32 2
  %5 = load ptr, ptr %4, align 8
  %6 = getelementptr inbounds nuw %class.anon.796, ptr %3, i32 0, i32 0
  %7 = load ptr, ptr %6, align 8
  %8 = load i8, ptr %7, align 1
  %9 = trunc i8 %8 to i1
  br i1 %9, label %10, label %19

10:                                               ; preds = %1
  %11 = getelementptr inbounds nuw %class.anon.796, ptr %3, i32 0, i32 1
  %12 = load ptr, ptr %11, align 8
  %13 = load i8, ptr %12, align 1
  %14 = trunc i8 %13 to i1
  br i1 %14, label %15, label %19

15:                                               ; preds = %10
  %16 = getelementptr inbounds nuw %"class.(anonymous namespace)::CXXNameMangler", ptr %5, i32 0, i32 1
  %17 = load ptr, ptr %16, align 8
  %18 = call noundef nonnull align 8 dereferenceable(48) ptr @_ZN4llvm11raw_ostreamlsEc(ptr noundef nonnull align 8 dereferenceable(48) %17, i8 noundef signext 88)
  br label %19

19:                                               ; preds = %15, %10, %1
  %20 = getelementptr inbounds nuw %class.anon.796, ptr %3, i32 0, i32 1
  %21 = load ptr, ptr %20, align 8
  store i8 0, ptr %21, align 1
  ret void
}