; Function Attrs: mustprogress nounwind uwtable
define internal fastcc void @"_ZZN12_GLOBAL__N_114CXXNameMangler24mangleValueInTemplateArgEN5clang8QualTypeERKNS1_7APValueEbbENK3$_0clEv"(ptr nocapture noundef nonnull readonly align 8 dereferenceable(24) %0) unnamed_addr #0 align 2 {
  %2 = getelementptr inbounds nuw i8, ptr %0, i64 16
  %3 = load ptr, ptr %2, align 8
  %4 = load ptr, ptr %0, align 8
  %5 = load i8, ptr %4, align 1
  %6 = trunc i8 %5 to i1
  br i1 %6, label %7, label %_ZN4llvm11raw_ostreamlsEc.exit

7:                                                ; preds = %1
  %8 = getelementptr inbounds nuw i8, ptr %0, i64 8
  %9 = load ptr, ptr %8, align 8
  %10 = load i8, ptr %9, align 1
  %11 = trunc i8 %10 to i1
  br i1 %11, label %12, label %_ZN4llvm11raw_ostreamlsEc.exit

12:                                               ; preds = %7
  %13 = getelementptr inbounds nuw i8, ptr %3, i64 8
  %14 = load ptr, ptr %13, align 8
  %15 = getelementptr inbounds nuw i8, ptr %14, i64 32
  %16 = load ptr, ptr %15, align 8
  %17 = getelementptr inbounds nuw i8, ptr %14, i64 24
  %18 = load ptr, ptr %17, align 8
  %.not.i = icmp ult ptr %16, %18
  br i1 %.not.i, label %21, label %19

19:                                               ; preds = %12
  %20 = tail call noundef nonnull align 8 dereferenceable(48) ptr @_ZN4llvm11raw_ostream5writeEh(ptr noundef nonnull align 8 dereferenceable(48) %14, i8 noundef zeroext 88) #24
  br label %_ZN4llvm11raw_ostreamlsEc.exit

21:                                               ; preds = %12
  %22 = getelementptr inbounds i8, ptr %16, i64 1
  store ptr %22, ptr %15, align 8
  store i8 88, ptr %16, align 1
  br label %_ZN4llvm11raw_ostreamlsEc.exit

_ZN4llvm11raw_ostreamlsEc.exit:                   ; preds = %21, %19, %7, %1
  %23 = getelementptr inbounds nuw i8, ptr %0, i64 8
  %24 = load ptr, ptr %23, align 8
  store i8 0, ptr %24, align 1
  ret void
}